; Function Attrs: mustprogress nounwind uwtable
define dso_local noundef zeroext i1 @_ZN4llvm17DominanceFrontier10invalidateERNS_8FunctionERKNS_17PreservedAnalysesERNS_15AnalysisManagerIS1_JEE11InvalidatorE(ptr noundef nonnull readnone align 8 captures(none) dereferenceable(48) %0, ptr noundef nonnull readnone align 8 captures(none) dereferenceable(136) %1, ptr noundef nonnull align 8 dereferenceable(96) %2, ptr noundef nonnull readnone align 8 captures(none) dereferenceable(16) %3) local_unnamed_addr #0 align 2 {
  %5 = alloca %"class.llvm::PreservedAnalyses::PreservedAnalysisChecker", align 8
  tail call void @llvm.experimental.noalias.scope.decl(metadata !39)
  store ptr %2, ptr %5, align 8, !alias.scope !39
  %6 = getelementptr inbounds nuw i8, ptr %5, i64 8
  store ptr @_ZN4llvm25DominanceFrontierAnalysis3KeyE, ptr %6, align 8, !alias.scope !39
  %7 = getelementptr inbounds nuw i8, ptr %2, i64 48
  %8 = getelementptr inbounds nuw i8, ptr %2, i64 56
  %9 = load ptr, ptr %8, align 8, !noalias !39
  %10 = load ptr, ptr %7, align 8, !noalias !39
  %11 = icmp eq ptr %9, %10
  br i1 %11, label %12, label %22

12:                                               ; preds = %4
  %13 = getelementptr inbounds nuw i8, ptr %2, i64 68
  %14 = load i32, ptr %13, align 4, !noalias !39
  %15 = zext i32 %14 to i64
  %16 = getelementptr inbounds nuw ptr, ptr %10, i64 %15
  %.not1317.i.i.i.i = icmp eq i32 %14, 0
  br i1 %.not1317.i.i.i.i, label %._crit_edge.i.i.i.i, label %.lr.ph.i.i.i.i

.lr.ph.i.i.i.i:                                   ; preds = %12, %19
  %.01118.i.i.i.i = phi ptr [ %20, %19 ], [ %10, %12 ]
  %17 = load ptr, ptr %.01118.i.i.i.i, align 8, !noalias !39
  %18 = icmp eq ptr %17, @_ZN4llvm25DominanceFrontierAnalysis3KeyE
  br i1 %18, label %_ZNK4llvm17PreservedAnalyses10getCheckerINS_25DominanceFrontierAnalysisEEENS0_24PreservedAnalysisCheckerEv.exit, label %19

19:                                               ; preds = %.lr.ph.i.i.i.i
  %20 = getelementptr inbounds nuw i8, ptr %.01118.i.i.i.i, i64 8
  %.not13.i.i.i.i = icmp eq ptr %20, %16
  br i1 %.not13.i.i.i.i, label %._crit_edge.i.i.i.i, label %.lr.ph.i.i.i.i, !llvm.loop !25

._crit_edge.i.i.i.i:                              ; preds = %19, %12
  %21 = getelementptr inbounds nuw ptr, ptr %9, i64 %15
  br label %_ZNK4llvm17PreservedAnalyses10getCheckerINS_25DominanceFrontierAnalysisEEENS0_24PreservedAnalysisCheckerEv.exit

22:                                               ; preds = %4
  %23 = tail call noundef ptr @_ZNK4llvm19SmallPtrSetImplBase6doFindEPKv(ptr noundef nonnull align 8 dereferenceable(28) %7, ptr noundef nonnull @_ZN4llvm25DominanceFrontierAnalysis3KeyE) #16, !noalias !39
  %.not.i.i.i.i = icmp eq ptr %23, null
  %.pre.i.i.i = load ptr, ptr %8, align 8, !noalias !39
  %.pre4.i.i.i = load ptr, ptr %7, align 8, !noalias !39
  br i1 %.not.i.i.i.i, label %24, label %._ZNK4llvm19SmallPtrSetImplBase8find_impEPKv.exit_crit_edge.i.i.i

._ZNK4llvm19SmallPtrSetImplBase8find_impEPKv.exit_crit_edge.i.i.i: ; preds = %22
  %.phi.trans.insert.i.i.i = getelementptr inbounds nuw i8, ptr %2, i64 68
  %.pre5.i.i.i = load i32, ptr %.phi.trans.insert.i.i.i, align 4, !noalias !39
  br label %_ZNK4llvm17PreservedAnalyses10getCheckerINS_25DominanceFrontierAnalysisEEENS0_24PreservedAnalysisCheckerEv.exit

24:                                               ; preds = %22
  %25 = icmp eq ptr %.pre.i.i.i, %.pre4.i.i.i
  %26 = getelementptr inbounds nuw i8, ptr %2, i64 68
  %27 = load i32, ptr %26, align 4, !noalias !39
  %28 = getelementptr inbounds nuw i8, ptr %2, i64 64
  %29 = load i32, ptr %28, align 8, !noalias !39
  %.v.v.i14.i.i.i.i = select i1 %25, i32 %27, i32 %29
  %.v.i15.i.i.i.i = zext i32 %.v.v.i14.i.i.i.i to i64
  %30 = getelementptr inbounds nuw ptr, ptr %.pre.i.i.i, i64 %.v.i15.i.i.i.i
  br label %_ZNK4llvm17PreservedAnalyses10getCheckerINS_25DominanceFrontierAnalysisEEENS0_24PreservedAnalysisCheckerEv.exit

_ZNK4llvm17PreservedAnalyses10getCheckerINS_25DominanceFrontierAnalysisEEENS0_24PreservedAnalysisCheckerEv.exit: ; preds = %.lr.ph.i.i.i.i, %._crit_edge.i.i.i.i, %._ZNK4llvm19SmallPtrSetImplBase8find_impEPKv.exit_crit_edge.i.i.i, %24
  %31 = phi i32 [ %14, %._crit_edge.i.i.i.i ], [ %27, %24 ], [ %.pre5.i.i.i, %._ZNK4llvm19SmallPtrSetImplBase8find_impEPKv.exit_crit_edge.i.i.i ], [ %14, %.lr.ph.i.i.i.i ]
  %32 = phi ptr [ %9, %._crit_edge.i.i.i.i ], [ %.pre4.i.i.i, %24 ], [ %.pre4.i.i.i, %._ZNK4llvm19SmallPtrSetImplBase8find_impEPKv.exit_crit_edge.i.i.i ], [ %9, %.lr.ph.i.i.i.i ]
  %33 = phi ptr [ %9, %._crit_edge.i.i.i.i ], [ %.pre.i.i.i, %24 ], [ %.pre.i.i.i, %._ZNK4llvm19SmallPtrSetImplBase8find_impEPKv.exit_crit_edge.i.i.i ], [ %9, %.lr.ph.i.i.i.i ]
  %.0.i.i.i.i = phi ptr [ %21, %._crit_edge.i.i.i.i ], [ %30, %24 ], [ %23, %._ZNK4llvm19SmallPtrSetImplBase8find_impEPKv.exit_crit_edge.i.i.i ], [ %.01118.i.i.i.i, %.lr.ph.i.i.i.i ]
  %34 = getelementptr inbounds nuw i8, ptr %5, i64 16
  %35 = icmp eq ptr %33, %32
  %36 = getelementptr inbounds nuw i8, ptr %2, i64 64
  %37 = load i32, ptr %36, align 8, !noalias !39
  %.v.v.i.i.i.i = select i1 %35, i32 %31, i32 %37
  %.v.i.i.i.i = zext i32 %.v.v.i.i.i.i to i64
  %38 = getelementptr inbounds nuw ptr, ptr %33, i64 %.v.i.i.i.i
  %39 = icmp ne ptr %.0.i.i.i.i, %38
  %40 = zext i1 %39 to i8
  store i8 %40, ptr %34, align 8, !alias.scope !39
  %41 = call noundef zeroext i1 @_ZN4llvm17PreservedAnalyses24PreservedAnalysisChecker9preservedEv(ptr noundef nonnull align 8 dereferenceable(17) %5)
  br i1 %41, label %47, label %42

42:                                               ; preds = %_ZNK4llvm17PreservedAnalyses10getCheckerINS_25DominanceFrontierAnalysisEEENS0_24PreservedAnalysisCheckerEv.exit
  %43 = call noundef zeroext i1 @_ZN4llvm17PreservedAnalyses24PreservedAnalysisChecker12preservedSetINS_13AllAnalysesOnINS_8FunctionEEEEEbv(ptr noundef nonnull align 8 dereferenceable(17) %5)
  br i1 %43, label %47, label %44

44:                                               ; preds = %42
  %45 = call noundef zeroext i1 @_ZN4llvm17PreservedAnalyses24PreservedAnalysisChecker12preservedSetINS_11CFGAnalysesEEEbv(ptr noundef nonnull align 8 dereferenceable(17) %5)
  %46 = xor i1 %45, true
  br label %47

47:                                               ; preds = %44, %42, %_ZNK4llvm17PreservedAnalyses10getCheckerINS_25DominanceFrontierAnalysisEEENS0_24PreservedAnalysisCheckerEv.exit
  %48 = phi i1 [ false, %42 ], [ false, %_ZNK4llvm17PreservedAnalyses10getCheckerINS_25DominanceFrontierAnalysisEEENS0_24PreservedAnalysisCheckerEv.exit ], [ %46, %44 ]
  ret i1 %48
}